
main.elf:     file format elf32-littleriscv


Disassembly of section .text:

00000000 <_start>:

_start:
    # Load gp
    .option push
	.option norelax
    la gp, __global_pointer$
       0:	20001197          	auipc	gp,0x20001
       4:	80018193          	add	gp,gp,-2048 # 20000800 <__global_pointer$>

    la a4, _sdata_load$
       8:	00001717          	auipc	a4,0x1
       c:	69870713          	add	a4,a4,1688 # 16a0 <_sdata_load$>
    la a5, _sdata$
      10:	20000797          	auipc	a5,0x20000
      14:	ff078793          	add	a5,a5,-16 # 20000000 <GPIO>
    la a6, _edata$
      18:	20000817          	auipc	a6,0x20000
      1c:	0f880813          	add	a6,a6,248 # 20000110 <__malloc_sbrk_start>

00000020 <_data_copy_loop>:
_data_copy_loop:
    lw a7, 0(a4)
      20:	00072883          	lw	a7,0(a4)
    sw a7, 0(a5)
      24:	0117a023          	sw	a7,0(a5)
    addi a5, a5, 0x04
      28:	00478793          	add	a5,a5,4
    addi a4, a4, 0x04
      2c:	00470713          	add	a4,a4,4
    blt a5, a6, _data_copy_loop
      30:	ff07c8e3          	blt	a5,a6,20 <_data_copy_loop>

    la a4, _sbss$
      34:	20000717          	auipc	a4,0x20000
      38:	0dc70713          	add	a4,a4,220 # 20000110 <__malloc_sbrk_start>
    la a5, _ebss$
      3c:	20000797          	auipc	a5,0x20000
      40:	12478793          	add	a5,a5,292 # 20000160 <__end$>

00000044 <_bss_zero_loop>:
_bss_zero_loop:
    sw zero, 0(a4)
      44:	00072023          	sw	zero,0(a4)
    addi a4, a4, 0x04
      48:	00470713          	add	a4,a4,4
    blt a4, a5, _bss_zero_loop
      4c:	fef74ce3          	blt	a4,a5,44 <_bss_zero_loop>

    la a4, __heap_start$
      50:	20000717          	auipc	a4,0x20000
      54:	11070713          	add	a4,a4,272 # 20000160 <__end$>
    la a5, __heap_end$
      58:	20000797          	auipc	a5,0x20000
      5c:	50878793          	add	a5,a5,1288 # 20000560 <__heap_end$>

00000060 <_heap_zero_loop>:
_heap_zero_loop:
    sw zero, 0(a4)
      60:	00072023          	sw	zero,0(a4)
    addi a4, a4, 0x04
      64:	00470713          	add	a4,a4,4
    blt a4, a5, _heap_zero_loop
      68:	fef74ce3          	blt	a4,a5,60 <_heap_zero_loop>

    li a4, 0
      6c:	00000713          	li	a4,0
    li a5, 0
      70:	00000793          	li	a5,0
    li a6, 0
      74:	00000813          	li	a6,0

    .option pop

    # Load sp
    la sp, __stack_top$
      78:	20004117          	auipc	sp,0x20004
      7c:	ce810113          	add	sp,sp,-792 # 20003d60 <__stack_top$>

    # Load trap handler base
    la t0, _MSYSIE
      80:	00000297          	auipc	t0,0x0
      84:	01428293          	add	t0,t0,20 # 94 <_MSYSIE>
    csrrw t0, mtvec, t0
      88:	305292f3          	csrrw	t0,mtvec,t0

    call main
      8c:	16c000ef          	jal	1f8 <main>

00000090 <_halt>:

_halt:
    j _halt
      90:	0000006f          	j	90 <_halt>

00000094 <_MSYSIE>:
#    lw s8, 28(sp)
#    lw s9, 24(sp)
#    lw s10, 20(sp)
#    lw s11, 16(sp)
#    addi sp, sp, 128        # Deallocate stack space
    mret
      94:	30200073          	mret

00000098 <hal_write_32bit>:
#include <hal.h>
#include <system.h>

void hal_write_32bit(uint32_t addr, uint32_t val) {
    __asm__ volatile ("sw %1, 0(%0)" :: "rK"(addr), "rK"(val));
      98:	00b52023          	sw	a1,0(a0)
}
      9c:	00008067          	ret

000000a0 <hal_write_16bit>:

void hal_write_16bit(uint32_t addr, uint16_t val) {
    __asm__ volatile ("sh %1, 0(%0)" :: "rK"(addr), "rK"(val));
      a0:	00b51023          	sh	a1,0(a0)
}
      a4:	00008067          	ret

000000a8 <hal_write_8bit>:

void hal_write_8bit(uint32_t addr, uint8_t val) {
    __asm__ volatile ("sb %1, 0(%0)" :: "rK"(addr), "rK"(val));
      a8:	00b50023          	sb	a1,0(a0)
}
      ac:	00008067          	ret

000000b0 <hal_read_32bit>:

uint32_t hal_read_32bit(uint32_t addr) {
    uint32_t val;
    __asm__ volatile ("lw %0, 0(%1)" : "=r"(val) : "rK"(addr));
      b0:	00052503          	lw	a0,0(a0)
    return val;
}
      b4:	00008067          	ret

000000b8 <hal_read_16bit>:

uint16_t hal_read_16bit(uint32_t addr) {
    uint16_t val;
    __asm__ volatile ("lh %0, 0(%1)" : "=r"(val) : "rK"(addr));
      b8:	00051503          	lh	a0,0(a0)
    return val;
}
      bc:	01051513          	sll	a0,a0,0x10
      c0:	01055513          	srl	a0,a0,0x10
      c4:	00008067          	ret

000000c8 <hal_read_8bit>:

uint8_t hal_read_8bit(uint32_t addr) {
    uint8_t val;
    __asm__ volatile ("lb %0, 0(%1)" : "=r"(val) : "rK"(addr));
      c8:	00050503          	lb	a0,0(a0)
    return val;
}
      cc:	0ff57513          	zext.b	a0,a0
      d0:	00008067          	ret

000000d4 <EXT_IRQ_0_HANDLER>:
  }
  
  return;
}

__attribute__((weak)) void EXT_IRQ_0_HANDLER(void) { return; }
      d4:	00008067          	ret

000000d8 <EXT_IRQ_1_HANDLER>:
__attribute__((weak)) void EXT_IRQ_1_HANDLER(void) { return; }
      d8:	00008067          	ret

000000dc <EXT_IRQ_2_HANDLER>:
__attribute__((weak)) void EXT_IRQ_2_HANDLER(void) { return; }
      dc:	00008067          	ret

000000e0 <EXT_IRQ_3_HANDLER>:
__attribute__((weak)) void EXT_IRQ_3_HANDLER(void) { return; }
      e0:	00008067          	ret

000000e4 <EXT_IRQ_4_HANDLER>:
__attribute__((weak)) void EXT_IRQ_4_HANDLER(void) { return; }
      e4:	00008067          	ret

000000e8 <EXT_IRQ_5_HANDLER>:
__attribute__((weak)) void EXT_IRQ_5_HANDLER(void) { return; }
      e8:	00008067          	ret

000000ec <BASE_IRQ_HANDLER>:
  uint32_t cause = hal_read_csr(mcause);
      ec:	342027f3          	csrr	a5,mcause
  if (cause & EXT_SYS_I0_IE)
      f0:	0017f713          	and	a4,a5,1
      f4:	00070463          	beqz	a4,fc <BASE_IRQ_HANDLER+0x10>
    EXT_IRQ_0_HANDLER();
      f8:	fddff06f          	j	d4 <EXT_IRQ_0_HANDLER>
  else if (cause & EXT_SYS_I1_IE)
      fc:	0027f713          	and	a4,a5,2
     100:	00070463          	beqz	a4,108 <BASE_IRQ_HANDLER+0x1c>
    EXT_IRQ_1_HANDLER();
     104:	fd5ff06f          	j	d8 <EXT_IRQ_1_HANDLER>
  else if (cause & EXT_SYS_I2_IE)
     108:	0047f713          	and	a4,a5,4
     10c:	00070463          	beqz	a4,114 <BASE_IRQ_HANDLER+0x28>
    EXT_IRQ_2_HANDLER();
     110:	fcdff06f          	j	dc <EXT_IRQ_2_HANDLER>
  else if (cause & EXT_SYS_I3_IE)
     114:	0087f713          	and	a4,a5,8
     118:	00070463          	beqz	a4,120 <BASE_IRQ_HANDLER+0x34>
    EXT_IRQ_3_HANDLER();
     11c:	fc5ff06f          	j	e0 <EXT_IRQ_3_HANDLER>
  else if (cause & EXT_SYS_I4_IE)
     120:	0107f713          	and	a4,a5,16
     124:	00070463          	beqz	a4,12c <BASE_IRQ_HANDLER+0x40>
    EXT_IRQ_4_HANDLER();
     128:	fbdff06f          	j	e4 <EXT_IRQ_4_HANDLER>
  else if (cause & EXT_SYS_I5_IE)
     12c:	0207f793          	and	a5,a5,32
     130:	00078463          	beqz	a5,138 <BASE_IRQ_HANDLER+0x4c>
    EXT_IRQ_5_HANDLER();
     134:	fb5ff06f          	j	e8 <EXT_IRQ_5_HANDLER>
}
     138:	00008067          	ret

0000013c <hex_print>:
  ((uart_instance_t *)(UART_BASE))->DATA = size;
  size >>= 8;
  ((uart_instance_t *)(UART_BASE))->DATA = size;
  size >>= 8;
  ((uart_instance_t *)(UART_BASE))->DATA = size;
  size >>= 8;
     13c:	01855513          	srl	a0,a0,0x18
  ((uart_instance_t *)(UART_BASE))->DATA = size;
     140:	400007b7          	lui	a5,0x40000
     144:	00a78023          	sb	a0,0(a5) # 40000000 <__stack_top$+0x1fffc2a0>
}
     148:	00008067          	ret

0000014c <echo>:

int echo(int fd, const char* ptr, size_t size) {
  while (*ptr)
    ((uart_instance_t *)(UART_BASE))->DATA = *ptr++;
     14c:	40000737          	lui	a4,0x40000
  while (*ptr)
     150:	0005c783          	lbu	a5,0(a1)
     154:	00079463          	bnez	a5,15c <echo+0x10>
}
     158:	00008067          	ret
    ((uart_instance_t *)(UART_BASE))->DATA = *ptr++;
     15c:	00158593          	add	a1,a1,1
     160:	00f70023          	sb	a5,0(a4) # 40000000 <__stack_top$+0x1fffc2a0>
     164:	fedff06f          	j	150 <echo+0x4>

00000168 <_open>:

int _open(int fd) {
  return -1;
}
     168:	fff00513          	li	a0,-1
     16c:	00008067          	ret

00000170 <_close>:

int _close(int fd) {
     170:	fff00513          	li	a0,-1
     174:	00008067          	ret

00000178 <_fstat>:
  return -1;
}

int _fstat(int fd, struct stat *st) {
  st->st_mode = S_IFCHR;
     178:	000027b7          	lui	a5,0x2
     17c:	00f5a223          	sw	a5,4(a1)
  return 0;
}
     180:	00000513          	li	a0,0
     184:	00008067          	ret

00000188 <_isatty>:

int _isatty(int fd) {
  return 1;
}
     188:	00100513          	li	a0,1
     18c:	00008067          	ret

00000190 <_lseek>:

int _lseek(int fd, int ptr, int dir) {
  return 0;
}
     190:	00000513          	li	a0,0
     194:	00008067          	ret

00000198 <_exit>:

void _exit(int status) {
  while (1);
     198:	0000006f          	j	198 <_exit>

0000019c <_kill>:
}

void _kill(int pid, int sig) {
  return;
}
     19c:	00008067          	ret

000001a0 <_getpid>:

int _getpid(void) {
  return -1;
}
     1a0:	fff00513          	li	a0,-1
     1a4:	00008067          	ret

000001a8 <_sbrk>:

void *_sbrk(ptrdiff_t incr) {
     1a8:	00050793          	mv	a5,a0
  extern char __heap_start$;
  extern char __heap_end$;
  static char * curbrk = &__end$;
  char * ret = NULL;

  if (((curbrk + incr) < &__end$) || ((curbrk + incr) > &__heap_end$)) {
     1ac:	8b41a503          	lw	a0,-1868(gp) # 200000b4 <curbrk.0>
     1b0:	96018713          	add	a4,gp,-1696 # 20000160 <__end$>
     1b4:	00f507b3          	add	a5,a0,a5
     1b8:	00e7ea63          	bltu	a5,a4,1cc <_sbrk+0x24>
     1bc:	d6018713          	add	a4,gp,-672 # 20000560 <__heap_end$>
     1c0:	00f76663          	bltu	a4,a5,1cc <_sbrk+0x24>
    return (void *)-1;
  }

  ret = curbrk;
  curbrk += incr;
     1c4:	8af1aa23          	sw	a5,-1868(gp) # 200000b4 <curbrk.0>
  return ret;
     1c8:	00008067          	ret
    return (void *)-1;
     1cc:	fff00513          	li	a0,-1
}
     1d0:	00008067          	ret

000001d4 <_read>:

int _read (int fd, char *buf, int count) {
  int read = 0;
  return read;
}
     1d4:	00000513          	li	a0,0
     1d8:	00008067          	ret

000001dc <_write>:
  size >>= 8;
     1dc:	0185d593          	srl	a1,a1,0x18
  ((uart_instance_t *)(UART_BASE))->DATA = size;
     1e0:	400007b7          	lui	a5,0x40000
     1e4:	00b78023          	sb	a1,0(a5) # 40000000 <__stack_top$+0x1fffc2a0>

int _write(int fd, const void* ptr, ssize_t len) {
  hex_print(len);
  hex_print((size_t)(char*)ptr);
  return len;
     1e8:	00060513          	mv	a0,a2
     1ec:	00008067          	ret

000001f0 <loop>:

uint8_t loop(uint8_t x) {
  if (x < 255)
    return loop(x+1);
  return x;
}
     1f0:	0ff00513          	li	a0,255
     1f4:	00008067          	ret

000001f8 <main>:

int main()
{
  //UART->DATA = loop(1);

  snprintf(buf, 10, "%s", msg);
     1f8:	20000637          	lui	a2,0x20000
{
     1fc:	ff010113          	add	sp,sp,-16
  snprintf(buf, 10, "%s", msg);
     200:	84c18693          	add	a3,gp,-1972 # 2000004c <msg>
     204:	00c60613          	add	a2,a2,12 # 2000000c <UART+0x4>
     208:	00a00593          	li	a1,10
     20c:	91c18513          	add	a0,gp,-1764 # 2000011c <buf>
{
     210:	00112623          	sw	ra,12(sp)
  snprintf(buf, 10, "%s", msg);
     214:	0bc000ef          	jal	2d0 <sniprintf>

  while (1);
     218:	0000006f          	j	218 <main+0x20>

0000021c <_sniprintf_r>:
     21c:	f7010113          	add	sp,sp,-144
     220:	06812c23          	sw	s0,120(sp)
     224:	06912a23          	sw	s1,116(sp)
     228:	06112e23          	sw	ra,124(sp)
     22c:	07212823          	sw	s2,112(sp)
     230:	08e12023          	sw	a4,128(sp)
     234:	08f12223          	sw	a5,132(sp)
     238:	09012423          	sw	a6,136(sp)
     23c:	09112623          	sw	a7,140(sp)
     240:	00050493          	mv	s1,a0
     244:	00060413          	mv	s0,a2
     248:	02065463          	bgez	a2,270 <_sniprintf_r+0x54>
     24c:	08b00793          	li	a5,139
     250:	00f52023          	sw	a5,0(a0)
     254:	fff00513          	li	a0,-1
     258:	07c12083          	lw	ra,124(sp)
     25c:	07812403          	lw	s0,120(sp)
     260:	07412483          	lw	s1,116(sp)
     264:	07012903          	lw	s2,112(sp)
     268:	09010113          	add	sp,sp,144
     26c:	00008067          	ret
     270:	20800793          	li	a5,520
     274:	00f11a23          	sh	a5,20(sp)
     278:	00b12423          	sw	a1,8(sp)
     27c:	00b12c23          	sw	a1,24(sp)
     280:	00068613          	mv	a2,a3
     284:	00000793          	li	a5,0
     288:	00040463          	beqz	s0,290 <_sniprintf_r+0x74>
     28c:	fff40793          	add	a5,s0,-1
     290:	fff00913          	li	s2,-1
     294:	08010693          	add	a3,sp,128
     298:	00810593          	add	a1,sp,8
     29c:	00048513          	mv	a0,s1
     2a0:	00f12823          	sw	a5,16(sp)
     2a4:	00f12e23          	sw	a5,28(sp)
     2a8:	01211b23          	sh	s2,22(sp)
     2ac:	00d12223          	sw	a3,4(sp)
     2b0:	3f8000ef          	jal	6a8 <_svfiprintf_r>
     2b4:	01255663          	bge	a0,s2,2c0 <_sniprintf_r+0xa4>
     2b8:	08b00793          	li	a5,139
     2bc:	00f4a023          	sw	a5,0(s1)
     2c0:	f8040ce3          	beqz	s0,258 <_sniprintf_r+0x3c>
     2c4:	00812783          	lw	a5,8(sp)
     2c8:	00078023          	sb	zero,0(a5)
     2cc:	f8dff06f          	j	258 <_sniprintf_r+0x3c>

000002d0 <sniprintf>:
     2d0:	f6010113          	add	sp,sp,-160
     2d4:	06912a23          	sw	s1,116(sp)
     2d8:	08f12a23          	sw	a5,148(sp)
     2dc:	06112e23          	sw	ra,124(sp)
     2e0:	06812c23          	sw	s0,120(sp)
     2e4:	07212823          	sw	s2,112(sp)
     2e8:	08d12623          	sw	a3,140(sp)
     2ec:	08e12823          	sw	a4,144(sp)
     2f0:	09012c23          	sw	a6,152(sp)
     2f4:	09112e23          	sw	a7,156(sp)
     2f8:	8b81a483          	lw	s1,-1864(gp) # 200000b8 <_impure_ptr>
     2fc:	0205d463          	bgez	a1,324 <sniprintf+0x54>
     300:	08b00793          	li	a5,139
     304:	00f4a023          	sw	a5,0(s1)
     308:	fff00513          	li	a0,-1
     30c:	07c12083          	lw	ra,124(sp)
     310:	07812403          	lw	s0,120(sp)
     314:	07412483          	lw	s1,116(sp)
     318:	07012903          	lw	s2,112(sp)
     31c:	0a010113          	add	sp,sp,160
     320:	00008067          	ret
     324:	20800793          	li	a5,520
     328:	00f11a23          	sh	a5,20(sp)
     32c:	00a12423          	sw	a0,8(sp)
     330:	00a12c23          	sw	a0,24(sp)
     334:	00058413          	mv	s0,a1
     338:	00000793          	li	a5,0
     33c:	00058463          	beqz	a1,344 <sniprintf+0x74>
     340:	fff58793          	add	a5,a1,-1
     344:	fff00913          	li	s2,-1
     348:	08c10693          	add	a3,sp,140
     34c:	00810593          	add	a1,sp,8
     350:	00048513          	mv	a0,s1
     354:	00f12823          	sw	a5,16(sp)
     358:	00f12e23          	sw	a5,28(sp)
     35c:	01211b23          	sh	s2,22(sp)
     360:	00d12223          	sw	a3,4(sp)
     364:	344000ef          	jal	6a8 <_svfiprintf_r>
     368:	01255663          	bge	a0,s2,374 <sniprintf+0xa4>
     36c:	08b00793          	li	a5,139
     370:	00f4a023          	sw	a5,0(s1)
     374:	f8040ce3          	beqz	s0,30c <sniprintf+0x3c>
     378:	00812783          	lw	a5,8(sp)
     37c:	00078023          	sb	zero,0(a5)
     380:	f8dff06f          	j	30c <sniprintf+0x3c>

00000384 <__ssputs_r>:
     384:	fe010113          	add	sp,sp,-32
     388:	01212823          	sw	s2,16(sp)
     38c:	0085a903          	lw	s2,8(a1)
     390:	00812c23          	sw	s0,24(sp)
     394:	01312623          	sw	s3,12(sp)
     398:	01512223          	sw	s5,4(sp)
     39c:	01612023          	sw	s6,0(sp)
     3a0:	00112e23          	sw	ra,28(sp)
     3a4:	00912a23          	sw	s1,20(sp)
     3a8:	01412423          	sw	s4,8(sp)
     3ac:	0005aa83          	lw	s5,0(a1)
     3b0:	00058413          	mv	s0,a1
     3b4:	00060b13          	mv	s6,a2
     3b8:	00068993          	mv	s3,a3
     3bc:	0926ee63          	bltu	a3,s2,458 <HEAP_SIZE+0x58>
     3c0:	00c59783          	lh	a5,12(a1)
     3c4:	4807f713          	and	a4,a5,1152
     3c8:	08070663          	beqz	a4,454 <HEAP_SIZE+0x54>
     3cc:	01442683          	lw	a3,20(s0)
     3d0:	0105a583          	lw	a1,16(a1)
     3d4:	00050a13          	mv	s4,a0
     3d8:	00169713          	sll	a4,a3,0x1
     3dc:	00d70733          	add	a4,a4,a3
     3e0:	01f75493          	srl	s1,a4,0x1f
     3e4:	00e484b3          	add	s1,s1,a4
     3e8:	40ba8ab3          	sub	s5,s5,a1
     3ec:	00198713          	add	a4,s3,1
     3f0:	4014d493          	sra	s1,s1,0x1
     3f4:	01570733          	add	a4,a4,s5
     3f8:	00e4f463          	bgeu	s1,a4,400 <HEAP_SIZE>
     3fc:	00070493          	mv	s1,a4
     400:	4007f793          	and	a5,a5,1024
     404:	0a078663          	beqz	a5,4b0 <HEAP_SIZE+0xb0>
     408:	00048593          	mv	a1,s1
     40c:	000a0513          	mv	a0,s4
     410:	57d000ef          	jal	118c <_malloc_r>
     414:	00050913          	mv	s2,a0
     418:	0a050c63          	beqz	a0,4d0 <HEAP_SIZE+0xd0>
     41c:	01042583          	lw	a1,16(s0)
     420:	000a8613          	mv	a2,s5
     424:	3c9000ef          	jal	fec <memcpy>
     428:	00c45783          	lhu	a5,12(s0)
     42c:	b7f7f793          	and	a5,a5,-1153
     430:	0807e793          	or	a5,a5,128
     434:	00f41623          	sh	a5,12(s0)
     438:	01242823          	sw	s2,16(s0)
     43c:	00942a23          	sw	s1,20(s0)
     440:	01590933          	add	s2,s2,s5
     444:	415484b3          	sub	s1,s1,s5
     448:	01242023          	sw	s2,0(s0)
     44c:	00942423          	sw	s1,8(s0)
     450:	00098913          	mv	s2,s3
     454:	0129f463          	bgeu	s3,s2,45c <HEAP_SIZE+0x5c>
     458:	00098913          	mv	s2,s3
     45c:	00042503          	lw	a0,0(s0)
     460:	00090613          	mv	a2,s2
     464:	000b0593          	mv	a1,s6
     468:	349000ef          	jal	fb0 <memmove>
     46c:	00842783          	lw	a5,8(s0)
     470:	00000513          	li	a0,0
     474:	412787b3          	sub	a5,a5,s2
     478:	00f42423          	sw	a5,8(s0)
     47c:	00042783          	lw	a5,0(s0)
     480:	012787b3          	add	a5,a5,s2
     484:	00f42023          	sw	a5,0(s0)
     488:	01c12083          	lw	ra,28(sp)
     48c:	01812403          	lw	s0,24(sp)
     490:	01412483          	lw	s1,20(sp)
     494:	01012903          	lw	s2,16(sp)
     498:	00c12983          	lw	s3,12(sp)
     49c:	00812a03          	lw	s4,8(sp)
     4a0:	00412a83          	lw	s5,4(sp)
     4a4:	00012b03          	lw	s6,0(sp)
     4a8:	02010113          	add	sp,sp,32
     4ac:	00008067          	ret
     4b0:	00048613          	mv	a2,s1
     4b4:	000a0513          	mv	a0,s4
     4b8:	69d000ef          	jal	1354 <_realloc_r>
     4bc:	00050913          	mv	s2,a0
     4c0:	f6051ce3          	bnez	a0,438 <HEAP_SIZE+0x38>
     4c4:	01042583          	lw	a1,16(s0)
     4c8:	000a0513          	mv	a0,s4
     4cc:	345000ef          	jal	1010 <_free_r>
     4d0:	00c00793          	li	a5,12
     4d4:	00fa2023          	sw	a5,0(s4)
     4d8:	00c45783          	lhu	a5,12(s0)
     4dc:	fff00513          	li	a0,-1
     4e0:	0407e793          	or	a5,a5,64
     4e4:	00f41623          	sh	a5,12(s0)
     4e8:	fa1ff06f          	j	488 <HEAP_SIZE+0x88>

000004ec <__ssprint_r>:
     4ec:	00862783          	lw	a5,8(a2)
     4f0:	fd010113          	add	sp,sp,-48
     4f4:	01412c23          	sw	s4,24(sp)
     4f8:	01712623          	sw	s7,12(sp)
     4fc:	02112623          	sw	ra,44(sp)
     500:	02812423          	sw	s0,40(sp)
     504:	02912223          	sw	s1,36(sp)
     508:	03212023          	sw	s2,32(sp)
     50c:	01312e23          	sw	s3,28(sp)
     510:	01512a23          	sw	s5,20(sp)
     514:	01612823          	sw	s6,16(sp)
     518:	01812423          	sw	s8,8(sp)
     51c:	00062b83          	lw	s7,0(a2)
     520:	00060a13          	mv	s4,a2
     524:	12079863          	bnez	a5,654 <__ssprint_r+0x168>
     528:	00000513          	li	a0,0
     52c:	02c12083          	lw	ra,44(sp)
     530:	02812403          	lw	s0,40(sp)
     534:	000a2223          	sw	zero,4(s4)
     538:	02412483          	lw	s1,36(sp)
     53c:	02012903          	lw	s2,32(sp)
     540:	01c12983          	lw	s3,28(sp)
     544:	01812a03          	lw	s4,24(sp)
     548:	01412a83          	lw	s5,20(sp)
     54c:	01012b03          	lw	s6,16(sp)
     550:	00c12b83          	lw	s7,12(sp)
     554:	00812c03          	lw	s8,8(sp)
     558:	03010113          	add	sp,sp,48
     55c:	00008067          	ret
     560:	000bab03          	lw	s6,0(s7)
     564:	004ba983          	lw	s3,4(s7)
     568:	008b8b93          	add	s7,s7,8
     56c:	00842903          	lw	s2,8(s0)
     570:	00042c03          	lw	s8,0(s0)
     574:	fe0986e3          	beqz	s3,560 <__ssprint_r+0x74>
     578:	0929ea63          	bltu	s3,s2,60c <__ssprint_r+0x120>
     57c:	00c41783          	lh	a5,12(s0)
     580:	4807f713          	and	a4,a5,1152
     584:	08070863          	beqz	a4,614 <__ssprint_r+0x128>
     588:	01442683          	lw	a3,20(s0)
     58c:	01042583          	lw	a1,16(s0)
     590:	00169713          	sll	a4,a3,0x1
     594:	00d70733          	add	a4,a4,a3
     598:	01f75493          	srl	s1,a4,0x1f
     59c:	40bc0c33          	sub	s8,s8,a1
     5a0:	00e484b3          	add	s1,s1,a4
     5a4:	001c0713          	add	a4,s8,1
     5a8:	4014d493          	sra	s1,s1,0x1
     5ac:	01370733          	add	a4,a4,s3
     5b0:	00e4f463          	bgeu	s1,a4,5b8 <__ssprint_r+0xcc>
     5b4:	00070493          	mv	s1,a4
     5b8:	4007f793          	and	a5,a5,1024
     5bc:	0a078663          	beqz	a5,668 <__ssprint_r+0x17c>
     5c0:	00048593          	mv	a1,s1
     5c4:	000a8513          	mv	a0,s5
     5c8:	3c5000ef          	jal	118c <_malloc_r>
     5cc:	00050913          	mv	s2,a0
     5d0:	0a050c63          	beqz	a0,688 <__ssprint_r+0x19c>
     5d4:	01042583          	lw	a1,16(s0)
     5d8:	000c0613          	mv	a2,s8
     5dc:	211000ef          	jal	fec <memcpy>
     5e0:	00c45783          	lhu	a5,12(s0)
     5e4:	b7f7f793          	and	a5,a5,-1153
     5e8:	0807e793          	or	a5,a5,128
     5ec:	00f41623          	sh	a5,12(s0)
     5f0:	01242823          	sw	s2,16(s0)
     5f4:	00942a23          	sw	s1,20(s0)
     5f8:	01890933          	add	s2,s2,s8
     5fc:	418484b3          	sub	s1,s1,s8
     600:	01242023          	sw	s2,0(s0)
     604:	00942423          	sw	s1,8(s0)
     608:	00098913          	mv	s2,s3
     60c:	0129f463          	bgeu	s3,s2,614 <__ssprint_r+0x128>
     610:	00098913          	mv	s2,s3
     614:	00042503          	lw	a0,0(s0)
     618:	000b0593          	mv	a1,s6
     61c:	00090613          	mv	a2,s2
     620:	191000ef          	jal	fb0 <memmove>
     624:	00842783          	lw	a5,8(s0)
     628:	013b0b33          	add	s6,s6,s3
     62c:	412787b3          	sub	a5,a5,s2
     630:	00f42423          	sw	a5,8(s0)
     634:	00042783          	lw	a5,0(s0)
     638:	012787b3          	add	a5,a5,s2
     63c:	00f42023          	sw	a5,0(s0)
     640:	008a2783          	lw	a5,8(s4)
     644:	413787b3          	sub	a5,a5,s3
     648:	00fa2423          	sw	a5,8(s4)
     64c:	00079a63          	bnez	a5,660 <__ssprint_r+0x174>
     650:	ed9ff06f          	j	528 <__ssprint_r+0x3c>
     654:	00050a93          	mv	s5,a0
     658:	00058413          	mv	s0,a1
     65c:	00000b13          	li	s6,0
     660:	00000993          	li	s3,0
     664:	f09ff06f          	j	56c <__ssprint_r+0x80>
     668:	00048613          	mv	a2,s1
     66c:	000a8513          	mv	a0,s5
     670:	4e5000ef          	jal	1354 <_realloc_r>
     674:	00050913          	mv	s2,a0
     678:	f6051ce3          	bnez	a0,5f0 <__ssprint_r+0x104>
     67c:	01042583          	lw	a1,16(s0)
     680:	000a8513          	mv	a0,s5
     684:	18d000ef          	jal	1010 <_free_r>
     688:	00c00793          	li	a5,12
     68c:	00faa023          	sw	a5,0(s5)
     690:	00c45783          	lhu	a5,12(s0)
     694:	fff00513          	li	a0,-1
     698:	0407e793          	or	a5,a5,64
     69c:	00f41623          	sh	a5,12(s0)
     6a0:	000a2423          	sw	zero,8(s4)
     6a4:	e89ff06f          	j	52c <__ssprint_r+0x40>

000006a8 <_svfiprintf_r>:
     6a8:	00c5d783          	lhu	a5,12(a1)
     6ac:	f5010113          	add	sp,sp,-176
     6b0:	0a812423          	sw	s0,168(sp)
     6b4:	0a912223          	sw	s1,164(sp)
     6b8:	0b212023          	sw	s2,160(sp)
     6bc:	09412c23          	sw	s4,152(sp)
     6c0:	0a112623          	sw	ra,172(sp)
     6c4:	09312e23          	sw	s3,156(sp)
     6c8:	09512a23          	sw	s5,148(sp)
     6cc:	09612823          	sw	s6,144(sp)
     6d0:	09712623          	sw	s7,140(sp)
     6d4:	09812423          	sw	s8,136(sp)
     6d8:	09912223          	sw	s9,132(sp)
     6dc:	09a12023          	sw	s10,128(sp)
     6e0:	07b12e23          	sw	s11,124(sp)
     6e4:	0807f793          	and	a5,a5,128
     6e8:	00050a13          	mv	s4,a0
     6ec:	00058913          	mv	s2,a1
     6f0:	00060493          	mv	s1,a2
     6f4:	00068413          	mv	s0,a3
     6f8:	06078863          	beqz	a5,768 <_svfiprintf_r+0xc0>
     6fc:	0105a783          	lw	a5,16(a1)
     700:	06079463          	bnez	a5,768 <_svfiprintf_r+0xc0>
     704:	04000593          	li	a1,64
     708:	285000ef          	jal	118c <_malloc_r>
     70c:	00a92023          	sw	a0,0(s2)
     710:	00a92823          	sw	a0,16(s2)
     714:	04051663          	bnez	a0,760 <_svfiprintf_r+0xb8>
     718:	00c00793          	li	a5,12
     71c:	00fa2023          	sw	a5,0(s4)
     720:	fff00513          	li	a0,-1
     724:	0ac12083          	lw	ra,172(sp)
     728:	0a812403          	lw	s0,168(sp)
     72c:	0a412483          	lw	s1,164(sp)
     730:	0a012903          	lw	s2,160(sp)
     734:	09c12983          	lw	s3,156(sp)
     738:	09812a03          	lw	s4,152(sp)
     73c:	09412a83          	lw	s5,148(sp)
     740:	09012b03          	lw	s6,144(sp)
     744:	08c12b83          	lw	s7,140(sp)
     748:	08812c03          	lw	s8,136(sp)
     74c:	08412c83          	lw	s9,132(sp)
     750:	08012d03          	lw	s10,128(sp)
     754:	07c12d83          	lw	s11,124(sp)
     758:	0b010113          	add	sp,sp,176
     75c:	00008067          	ret
     760:	04000793          	li	a5,64
     764:	00f92a23          	sw	a5,20(s2)
     768:	02000793          	li	a5,32
     76c:	02f104a3          	sb	a5,41(sp)
     770:	03000793          	li	a5,48
     774:	02012223          	sw	zero,36(sp)
     778:	02f10523          	sb	a5,42(sp)
     77c:	00812623          	sw	s0,12(sp)
     780:	02500c93          	li	s9,37
     784:	00000a93          	li	s5,0
     788:	00048413          	mv	s0,s1
     78c:	00044783          	lbu	a5,0(s0)
     790:	00078463          	beqz	a5,798 <_svfiprintf_r+0xf0>
     794:	0d979863          	bne	a5,s9,864 <_svfiprintf_r+0x1bc>
     798:	40940db3          	sub	s11,s0,s1
     79c:	02940663          	beq	s0,s1,7c8 <_svfiprintf_r+0x120>
     7a0:	000d8693          	mv	a3,s11
     7a4:	00048613          	mv	a2,s1
     7a8:	00090593          	mv	a1,s2
     7ac:	000a0513          	mv	a0,s4
     7b0:	bd5ff0ef          	jal	384 <__ssputs_r>
     7b4:	fff00793          	li	a5,-1
     7b8:	24f50863          	beq	a0,a5,a08 <_svfiprintf_r+0x360>
     7bc:	02412783          	lw	a5,36(sp)
     7c0:	01b787b3          	add	a5,a5,s11
     7c4:	02f12223          	sw	a5,36(sp)
     7c8:	00044783          	lbu	a5,0(s0)
     7cc:	22078e63          	beqz	a5,a08 <_svfiprintf_r+0x360>
     7d0:	fff00793          	li	a5,-1
     7d4:	00140493          	add	s1,s0,1
     7d8:	00012823          	sw	zero,16(sp)
     7dc:	00012e23          	sw	zero,28(sp)
     7e0:	00f12a23          	sw	a5,20(sp)
     7e4:	00012c23          	sw	zero,24(sp)
     7e8:	040109a3          	sb	zero,83(sp)
     7ec:	06012423          	sw	zero,104(sp)
     7f0:	00100d93          	li	s11,1
     7f4:	0004c583          	lbu	a1,0(s1)
     7f8:	00500613          	li	a2,5
     7fc:	81018513          	add	a0,gp,-2032 # 20000010 <UART+0x8>
     800:	78c000ef          	jal	f8c <memchr>
     804:	01012783          	lw	a5,16(sp)
     808:	00148413          	add	s0,s1,1
     80c:	06051063          	bnez	a0,86c <_svfiprintf_r+0x1c4>
     810:	0107f713          	and	a4,a5,16
     814:	00070663          	beqz	a4,820 <_svfiprintf_r+0x178>
     818:	02000713          	li	a4,32
     81c:	04e109a3          	sb	a4,83(sp)
     820:	0087f713          	and	a4,a5,8
     824:	00070663          	beqz	a4,830 <_svfiprintf_r+0x188>
     828:	02b00713          	li	a4,43
     82c:	04e109a3          	sb	a4,83(sp)
     830:	0004c683          	lbu	a3,0(s1)
     834:	02a00713          	li	a4,42
     838:	04e68863          	beq	a3,a4,888 <_svfiprintf_r+0x1e0>
     83c:	01c12703          	lw	a4,28(sp)
     840:	00048413          	mv	s0,s1
     844:	00000793          	li	a5,0
     848:	00900613          	li	a2,9
     84c:	00044683          	lbu	a3,0(s0)
     850:	00140593          	add	a1,s0,1
     854:	fd068693          	add	a3,a3,-48
     858:	10d67863          	bgeu	a2,a3,968 <_svfiprintf_r+0x2c0>
     85c:	04079063          	bnez	a5,89c <_svfiprintf_r+0x1f4>
     860:	0540006f          	j	8b4 <_svfiprintf_r+0x20c>
     864:	00140413          	add	s0,s0,1
     868:	f25ff06f          	j	78c <_svfiprintf_r+0xe4>
     86c:	81018713          	add	a4,gp,-2032 # 20000010 <UART+0x8>
     870:	40e50533          	sub	a0,a0,a4
     874:	00ad9533          	sll	a0,s11,a0
     878:	00a7e7b3          	or	a5,a5,a0
     87c:	00f12823          	sw	a5,16(sp)
     880:	00040493          	mv	s1,s0
     884:	f71ff06f          	j	7f4 <_svfiprintf_r+0x14c>
     888:	00c12703          	lw	a4,12(sp)
     88c:	00470693          	add	a3,a4,4
     890:	00072703          	lw	a4,0(a4)
     894:	00d12623          	sw	a3,12(sp)
     898:	00074663          	bltz	a4,8a4 <_svfiprintf_r+0x1fc>
     89c:	00e12e23          	sw	a4,28(sp)
     8a0:	0140006f          	j	8b4 <_svfiprintf_r+0x20c>
     8a4:	40e00733          	neg	a4,a4
     8a8:	0027e793          	or	a5,a5,2
     8ac:	00e12e23          	sw	a4,28(sp)
     8b0:	00f12823          	sw	a5,16(sp)
     8b4:	00044703          	lbu	a4,0(s0)
     8b8:	02e00793          	li	a5,46
     8bc:	02f71863          	bne	a4,a5,8ec <_svfiprintf_r+0x244>
     8c0:	00144703          	lbu	a4,1(s0)
     8c4:	02a00793          	li	a5,42
     8c8:	0af71e63          	bne	a4,a5,984 <_svfiprintf_r+0x2dc>
     8cc:	00c12783          	lw	a5,12(sp)
     8d0:	00240413          	add	s0,s0,2
     8d4:	00478713          	add	a4,a5,4
     8d8:	0007a783          	lw	a5,0(a5)
     8dc:	00e12623          	sw	a4,12(sp)
     8e0:	0007d463          	bgez	a5,8e8 <_svfiprintf_r+0x240>
     8e4:	fff00793          	li	a5,-1
     8e8:	00f12a23          	sw	a5,20(sp)
     8ec:	00044583          	lbu	a1,0(s0)
     8f0:	00300613          	li	a2,3
     8f4:	81818513          	add	a0,gp,-2024 # 20000018 <UART+0x10>
     8f8:	694000ef          	jal	f8c <memchr>
     8fc:	02050263          	beqz	a0,920 <_svfiprintf_r+0x278>
     900:	81818793          	add	a5,gp,-2024 # 20000018 <UART+0x10>
     904:	40f50533          	sub	a0,a0,a5
     908:	01012783          	lw	a5,16(sp)
     90c:	04000713          	li	a4,64
     910:	00a71733          	sll	a4,a4,a0
     914:	00e7e7b3          	or	a5,a5,a4
     918:	00140413          	add	s0,s0,1
     91c:	00f12823          	sw	a5,16(sp)
     920:	00044583          	lbu	a1,0(s0)
     924:	00600613          	li	a2,6
     928:	81c18513          	add	a0,gp,-2020 # 2000001c <UART+0x14>
     92c:	00140493          	add	s1,s0,1
     930:	02b10423          	sb	a1,40(sp)
     934:	658000ef          	jal	f8c <memchr>
     938:	0e050263          	beqz	a0,a1c <_svfiprintf_r+0x374>
     93c:	0a0a9263          	bnez	s5,9e0 <_svfiprintf_r+0x338>
     940:	01012703          	lw	a4,16(sp)
     944:	00c12783          	lw	a5,12(sp)
     948:	10077713          	and	a4,a4,256
     94c:	08070263          	beqz	a4,9d0 <_svfiprintf_r+0x328>
     950:	00478793          	add	a5,a5,4
     954:	00f12623          	sw	a5,12(sp)
     958:	02412783          	lw	a5,36(sp)
     95c:	013787b3          	add	a5,a5,s3
     960:	02f12223          	sw	a5,36(sp)
     964:	e25ff06f          	j	788 <_svfiprintf_r+0xe0>
     968:	00271793          	sll	a5,a4,0x2
     96c:	00e787b3          	add	a5,a5,a4
     970:	00179793          	sll	a5,a5,0x1
     974:	00d78733          	add	a4,a5,a3
     978:	00058413          	mv	s0,a1
     97c:	00100793          	li	a5,1
     980:	ecdff06f          	j	84c <_svfiprintf_r+0x1a4>
     984:	00140413          	add	s0,s0,1
     988:	00012a23          	sw	zero,20(sp)
     98c:	00000793          	li	a5,0
     990:	00000713          	li	a4,0
     994:	00900613          	li	a2,9
     998:	00044683          	lbu	a3,0(s0)
     99c:	00140593          	add	a1,s0,1
     9a0:	fd068693          	add	a3,a3,-48
     9a4:	00d67863          	bgeu	a2,a3,9b4 <_svfiprintf_r+0x30c>
     9a8:	f40782e3          	beqz	a5,8ec <_svfiprintf_r+0x244>
     9ac:	00e12a23          	sw	a4,20(sp)
     9b0:	f3dff06f          	j	8ec <_svfiprintf_r+0x244>
     9b4:	00271793          	sll	a5,a4,0x2
     9b8:	00e787b3          	add	a5,a5,a4
     9bc:	00179793          	sll	a5,a5,0x1
     9c0:	00d78733          	add	a4,a5,a3
     9c4:	00058413          	mv	s0,a1
     9c8:	00100793          	li	a5,1
     9cc:	fcdff06f          	j	998 <_svfiprintf_r+0x2f0>
     9d0:	00778793          	add	a5,a5,7
     9d4:	ff87f793          	and	a5,a5,-8
     9d8:	00878793          	add	a5,a5,8
     9dc:	f79ff06f          	j	954 <_svfiprintf_r+0x2ac>
     9e0:	00c10713          	add	a4,sp,12
     9e4:	38400693          	li	a3,900
     9e8:	00090613          	mv	a2,s2
     9ec:	01010593          	add	a1,sp,16
     9f0:	000a0513          	mv	a0,s4
     9f4:	00000097          	auipc	ra,0x0
     9f8:	000000e7          	jalr	zero # 0 <_start>
     9fc:	fff00793          	li	a5,-1
     a00:	00050993          	mv	s3,a0
     a04:	f4f51ae3          	bne	a0,a5,958 <_svfiprintf_r+0x2b0>
     a08:	00c95783          	lhu	a5,12(s2)
     a0c:	0407f793          	and	a5,a5,64
     a10:	d00798e3          	bnez	a5,720 <_svfiprintf_r+0x78>
     a14:	02412503          	lw	a0,36(sp)
     a18:	d0dff06f          	j	724 <_svfiprintf_r+0x7c>
     a1c:	00c10713          	add	a4,sp,12
     a20:	38400693          	li	a3,900
     a24:	00090613          	mv	a2,s2
     a28:	01010593          	add	a1,sp,16
     a2c:	000a0513          	mv	a0,s4
     a30:	1b8000ef          	jal	be8 <_printf_i>
     a34:	fc9ff06f          	j	9fc <_svfiprintf_r+0x354>

00000a38 <_printf_common>:
     a38:	fd010113          	add	sp,sp,-48
     a3c:	01512a23          	sw	s5,20(sp)
     a40:	0105a783          	lw	a5,16(a1)
     a44:	00070a93          	mv	s5,a4
     a48:	0085a703          	lw	a4,8(a1)
     a4c:	02812423          	sw	s0,40(sp)
     a50:	03212023          	sw	s2,32(sp)
     a54:	01312e23          	sw	s3,28(sp)
     a58:	01412c23          	sw	s4,24(sp)
     a5c:	02112623          	sw	ra,44(sp)
     a60:	02912223          	sw	s1,36(sp)
     a64:	01612823          	sw	s6,16(sp)
     a68:	01712623          	sw	s7,12(sp)
     a6c:	00050993          	mv	s3,a0
     a70:	00058413          	mv	s0,a1
     a74:	00060913          	mv	s2,a2
     a78:	00068a13          	mv	s4,a3
     a7c:	00e7d463          	bge	a5,a4,a84 <_printf_common+0x4c>
     a80:	00070793          	mv	a5,a4
     a84:	00f92023          	sw	a5,0(s2)
     a88:	04344703          	lbu	a4,67(s0)
     a8c:	00070663          	beqz	a4,a98 <_printf_common+0x60>
     a90:	00178793          	add	a5,a5,1
     a94:	00f92023          	sw	a5,0(s2)
     a98:	00042783          	lw	a5,0(s0)
     a9c:	0207f793          	and	a5,a5,32
     aa0:	00078863          	beqz	a5,ab0 <_printf_common+0x78>
     aa4:	00092783          	lw	a5,0(s2)
     aa8:	00278793          	add	a5,a5,2
     aac:	00f92023          	sw	a5,0(s2)
     ab0:	00042483          	lw	s1,0(s0)
     ab4:	0064f493          	and	s1,s1,6
     ab8:	00049e63          	bnez	s1,ad4 <_printf_common+0x9c>
     abc:	01940b13          	add	s6,s0,25
     ac0:	fff00b93          	li	s7,-1
     ac4:	00c42783          	lw	a5,12(s0)
     ac8:	00092703          	lw	a4,0(s2)
     acc:	40e787b3          	sub	a5,a5,a4
     ad0:	08f4c263          	blt	s1,a5,b54 <_printf_common+0x11c>
     ad4:	04344783          	lbu	a5,67(s0)
     ad8:	00f036b3          	snez	a3,a5
     adc:	00042783          	lw	a5,0(s0)
     ae0:	0207f793          	and	a5,a5,32
     ae4:	0c079063          	bnez	a5,ba4 <_printf_common+0x16c>
     ae8:	04340613          	add	a2,s0,67
     aec:	000a0593          	mv	a1,s4
     af0:	00098513          	mv	a0,s3
     af4:	000a80e7          	jalr	s5
     af8:	fff00793          	li	a5,-1
     afc:	06f50863          	beq	a0,a5,b6c <_printf_common+0x134>
     b00:	00042783          	lw	a5,0(s0)
     b04:	00400713          	li	a4,4
     b08:	00000493          	li	s1,0
     b0c:	0067f793          	and	a5,a5,6
     b10:	00e79c63          	bne	a5,a4,b28 <_printf_common+0xf0>
     b14:	00c42483          	lw	s1,12(s0)
     b18:	00092783          	lw	a5,0(s2)
     b1c:	40f484b3          	sub	s1,s1,a5
     b20:	0004d463          	bgez	s1,b28 <_printf_common+0xf0>
     b24:	00000493          	li	s1,0
     b28:	00842783          	lw	a5,8(s0)
     b2c:	01042703          	lw	a4,16(s0)
     b30:	00f75663          	bge	a4,a5,b3c <_printf_common+0x104>
     b34:	40e787b3          	sub	a5,a5,a4
     b38:	00f484b3          	add	s1,s1,a5
     b3c:	00000913          	li	s2,0
     b40:	01a40413          	add	s0,s0,26
     b44:	fff00b13          	li	s6,-1
     b48:	09249063          	bne	s1,s2,bc8 <_printf_common+0x190>
     b4c:	00000513          	li	a0,0
     b50:	0200006f          	j	b70 <_printf_common+0x138>
     b54:	00100693          	li	a3,1
     b58:	000b0613          	mv	a2,s6
     b5c:	000a0593          	mv	a1,s4
     b60:	00098513          	mv	a0,s3
     b64:	000a80e7          	jalr	s5
     b68:	03751a63          	bne	a0,s7,b9c <_printf_common+0x164>
     b6c:	fff00513          	li	a0,-1
     b70:	02c12083          	lw	ra,44(sp)
     b74:	02812403          	lw	s0,40(sp)
     b78:	02412483          	lw	s1,36(sp)
     b7c:	02012903          	lw	s2,32(sp)
     b80:	01c12983          	lw	s3,28(sp)
     b84:	01812a03          	lw	s4,24(sp)
     b88:	01412a83          	lw	s5,20(sp)
     b8c:	01012b03          	lw	s6,16(sp)
     b90:	00c12b83          	lw	s7,12(sp)
     b94:	03010113          	add	sp,sp,48
     b98:	00008067          	ret
     b9c:	00148493          	add	s1,s1,1
     ba0:	f25ff06f          	j	ac4 <_printf_common+0x8c>
     ba4:	00d40733          	add	a4,s0,a3
     ba8:	03000613          	li	a2,48
     bac:	04c701a3          	sb	a2,67(a4)
     bb0:	04544703          	lbu	a4,69(s0)
     bb4:	00168793          	add	a5,a3,1
     bb8:	00f407b3          	add	a5,s0,a5
     bbc:	00268693          	add	a3,a3,2
     bc0:	04e781a3          	sb	a4,67(a5)
     bc4:	f25ff06f          	j	ae8 <_printf_common+0xb0>
     bc8:	00100693          	li	a3,1
     bcc:	00040613          	mv	a2,s0
     bd0:	000a0593          	mv	a1,s4
     bd4:	00098513          	mv	a0,s3
     bd8:	000a80e7          	jalr	s5
     bdc:	f96508e3          	beq	a0,s6,b6c <_printf_common+0x134>
     be0:	00190913          	add	s2,s2,1
     be4:	f65ff06f          	j	b48 <_printf_common+0x110>

00000be8 <_printf_i>:
     be8:	fc010113          	add	sp,sp,-64
     bec:	02812c23          	sw	s0,56(sp)
     bf0:	03412423          	sw	s4,40(sp)
     bf4:	03512223          	sw	s5,36(sp)
     bf8:	03612023          	sw	s6,32(sp)
     bfc:	02112e23          	sw	ra,60(sp)
     c00:	02912a23          	sw	s1,52(sp)
     c04:	03212823          	sw	s2,48(sp)
     c08:	03312623          	sw	s3,44(sp)
     c0c:	01712e23          	sw	s7,28(sp)
     c10:	01812c23          	sw	s8,24(sp)
     c14:	01912a23          	sw	s9,20(sp)
     c18:	0185c783          	lbu	a5,24(a1)
     c1c:	00068b13          	mv	s6,a3
     c20:	07800693          	li	a3,120
     c24:	00050a13          	mv	s4,a0
     c28:	00058413          	mv	s0,a1
     c2c:	00060a93          	mv	s5,a2
     c30:	00f6ee63          	bltu	a3,a5,c4c <_printf_i+0x64>
     c34:	06200693          	li	a3,98
     c38:	04358b93          	add	s7,a1,67
     c3c:	00f6ec63          	bltu	a3,a5,c54 <_printf_i+0x6c>
     c40:	28078663          	beqz	a5,ecc <_printf_i+0x2e4>
     c44:	05800693          	li	a3,88
     c48:	22d78863          	beq	a5,a3,e78 <_printf_i+0x290>
     c4c:	04240c93          	add	s9,s0,66
     c50:	03c0006f          	j	c8c <_printf_i+0xa4>
     c54:	f9d78813          	add	a6,a5,-99
     c58:	0ff87813          	zext.b	a6,a6
     c5c:	01500693          	li	a3,21
     c60:	ff06e6e3          	bltu	a3,a6,c4c <_printf_i+0x64>
     c64:	85c18693          	add	a3,gp,-1956 # 2000005c <msg+0x10>
     c68:	00281813          	sll	a6,a6,0x2
     c6c:	00d80833          	add	a6,a6,a3
     c70:	00082683          	lw	a3,0(a6)
     c74:	00068067          	jr	a3
     c78:	00072783          	lw	a5,0(a4)
     c7c:	04258c93          	add	s9,a1,66
     c80:	00478693          	add	a3,a5,4
     c84:	0007a783          	lw	a5,0(a5)
     c88:	00d72023          	sw	a3,0(a4)
     c8c:	04f40123          	sb	a5,66(s0)
     c90:	00100793          	li	a5,1
     c94:	2740006f          	j	f08 <_printf_i+0x320>
     c98:	0005a783          	lw	a5,0(a1)
     c9c:	00072603          	lw	a2,0(a4)
     ca0:	0807f593          	and	a1,a5,128
     ca4:	00460693          	add	a3,a2,4
     ca8:	02058463          	beqz	a1,cd0 <_printf_i+0xe8>
     cac:	00062483          	lw	s1,0(a2)
     cb0:	00d72023          	sw	a3,0(a4)
     cb4:	0004d863          	bgez	s1,cc4 <_printf_i+0xdc>
     cb8:	02d00793          	li	a5,45
     cbc:	409004b3          	neg	s1,s1
     cc0:	04f401a3          	sb	a5,67(s0)
     cc4:	82418913          	add	s2,gp,-2012 # 20000024 <UART+0x1c>
     cc8:	00a00993          	li	s3,10
     ccc:	0c40006f          	j	d90 <_printf_i+0x1a8>
     cd0:	00062483          	lw	s1,0(a2)
     cd4:	0407f793          	and	a5,a5,64
     cd8:	00d72023          	sw	a3,0(a4)
     cdc:	fc078ce3          	beqz	a5,cb4 <_printf_i+0xcc>
     ce0:	01049493          	sll	s1,s1,0x10
     ce4:	4104d493          	sra	s1,s1,0x10
     ce8:	fcdff06f          	j	cb4 <_printf_i+0xcc>
     cec:	0005a603          	lw	a2,0(a1)
     cf0:	00072683          	lw	a3,0(a4)
     cf4:	08067593          	and	a1,a2,128
     cf8:	0006a483          	lw	s1,0(a3)
     cfc:	00468693          	add	a3,a3,4
     d00:	00059a63          	bnez	a1,d14 <_printf_i+0x12c>
     d04:	04067613          	and	a2,a2,64
     d08:	00060663          	beqz	a2,d14 <_printf_i+0x12c>
     d0c:	01049493          	sll	s1,s1,0x10
     d10:	0104d493          	srl	s1,s1,0x10
     d14:	00d72023          	sw	a3,0(a4)
     d18:	06f00713          	li	a4,111
     d1c:	82418913          	add	s2,gp,-2012 # 20000024 <UART+0x1c>
     d20:	00800993          	li	s3,8
     d24:	06e78463          	beq	a5,a4,d8c <_printf_i+0x1a4>
     d28:	00a00993          	li	s3,10
     d2c:	0600006f          	j	d8c <_printf_i+0x1a4>
     d30:	0005a783          	lw	a5,0(a1)
     d34:	0207e793          	or	a5,a5,32
     d38:	00f5a023          	sw	a5,0(a1)
     d3c:	07800793          	li	a5,120
     d40:	83818913          	add	s2,gp,-1992 # 20000038 <UART+0x30>
     d44:	04f402a3          	sb	a5,69(s0)
     d48:	00042783          	lw	a5,0(s0)
     d4c:	00072683          	lw	a3,0(a4)
     d50:	0807f613          	and	a2,a5,128
     d54:	0006a483          	lw	s1,0(a3)
     d58:	00468693          	add	a3,a3,4
     d5c:	00061a63          	bnez	a2,d70 <_printf_i+0x188>
     d60:	0407f613          	and	a2,a5,64
     d64:	00060663          	beqz	a2,d70 <_printf_i+0x188>
     d68:	01049493          	sll	s1,s1,0x10
     d6c:	0104d493          	srl	s1,s1,0x10
     d70:	00d72023          	sw	a3,0(a4)
     d74:	0017f713          	and	a4,a5,1
     d78:	00070663          	beqz	a4,d84 <_printf_i+0x19c>
     d7c:	0207e793          	or	a5,a5,32
     d80:	00f42023          	sw	a5,0(s0)
     d84:	0e048e63          	beqz	s1,e80 <_printf_i+0x298>
     d88:	01000993          	li	s3,16
     d8c:	040401a3          	sb	zero,67(s0)
     d90:	00442783          	lw	a5,4(s0)
     d94:	00f42423          	sw	a5,8(s0)
     d98:	0007ce63          	bltz	a5,db4 <_printf_i+0x1cc>
     d9c:	00042703          	lw	a4,0(s0)
     da0:	00f4e7b3          	or	a5,s1,a5
     da4:	000b8c93          	mv	s9,s7
     da8:	ffb77713          	and	a4,a4,-5
     dac:	00e42023          	sw	a4,0(s0)
     db0:	02078e63          	beqz	a5,dec <_printf_i+0x204>
     db4:	000b8c93          	mv	s9,s7
     db8:	00098593          	mv	a1,s3
     dbc:	00048513          	mv	a0,s1
     dc0:	079000ef          	jal	1638 <__umodsi3>
     dc4:	00a90533          	add	a0,s2,a0
     dc8:	00054783          	lbu	a5,0(a0)
     dcc:	00098593          	mv	a1,s3
     dd0:	00048513          	mv	a0,s1
     dd4:	fefc8fa3          	sb	a5,-1(s9)
     dd8:	00048c13          	mv	s8,s1
     ddc:	015000ef          	jal	15f0 <__hidden___udivsi3>
     de0:	fffc8c93          	add	s9,s9,-1
     de4:	00050493          	mv	s1,a0
     de8:	fd3c78e3          	bgeu	s8,s3,db8 <_printf_i+0x1d0>
     dec:	00800793          	li	a5,8
     df0:	02f99463          	bne	s3,a5,e18 <_printf_i+0x230>
     df4:	00042783          	lw	a5,0(s0)
     df8:	0017f793          	and	a5,a5,1
     dfc:	00078e63          	beqz	a5,e18 <_printf_i+0x230>
     e00:	00442703          	lw	a4,4(s0)
     e04:	01042783          	lw	a5,16(s0)
     e08:	00e7c863          	blt	a5,a4,e18 <_printf_i+0x230>
     e0c:	03000793          	li	a5,48
     e10:	fefc8fa3          	sb	a5,-1(s9)
     e14:	fffc8c93          	add	s9,s9,-1
     e18:	419b8bb3          	sub	s7,s7,s9
     e1c:	01742823          	sw	s7,16(s0)
     e20:	000b0713          	mv	a4,s6
     e24:	000a8693          	mv	a3,s5
     e28:	00c10613          	add	a2,sp,12
     e2c:	00040593          	mv	a1,s0
     e30:	000a0513          	mv	a0,s4
     e34:	c05ff0ef          	jal	a38 <_printf_common>
     e38:	fff00493          	li	s1,-1
     e3c:	0c951c63          	bne	a0,s1,f14 <_printf_i+0x32c>
     e40:	fff00513          	li	a0,-1
     e44:	03c12083          	lw	ra,60(sp)
     e48:	03812403          	lw	s0,56(sp)
     e4c:	03412483          	lw	s1,52(sp)
     e50:	03012903          	lw	s2,48(sp)
     e54:	02c12983          	lw	s3,44(sp)
     e58:	02812a03          	lw	s4,40(sp)
     e5c:	02412a83          	lw	s5,36(sp)
     e60:	02012b03          	lw	s6,32(sp)
     e64:	01c12b83          	lw	s7,28(sp)
     e68:	01812c03          	lw	s8,24(sp)
     e6c:	01412c83          	lw	s9,20(sp)
     e70:	04010113          	add	sp,sp,64
     e74:	00008067          	ret
     e78:	82418913          	add	s2,gp,-2012 # 20000024 <UART+0x1c>
     e7c:	ec9ff06f          	j	d44 <_printf_i+0x15c>
     e80:	00042783          	lw	a5,0(s0)
     e84:	fdf7f793          	and	a5,a5,-33
     e88:	00f42023          	sw	a5,0(s0)
     e8c:	efdff06f          	j	d88 <_printf_i+0x1a0>
     e90:	0005a683          	lw	a3,0(a1)
     e94:	00072783          	lw	a5,0(a4)
     e98:	0145a603          	lw	a2,20(a1)
     e9c:	0806f513          	and	a0,a3,128
     ea0:	00478593          	add	a1,a5,4
     ea4:	00050a63          	beqz	a0,eb8 <_printf_i+0x2d0>
     ea8:	00b72023          	sw	a1,0(a4)
     eac:	0007a783          	lw	a5,0(a5)
     eb0:	00c7a023          	sw	a2,0(a5)
     eb4:	0180006f          	j	ecc <_printf_i+0x2e4>
     eb8:	00b72023          	sw	a1,0(a4)
     ebc:	0406f693          	and	a3,a3,64
     ec0:	0007a783          	lw	a5,0(a5)
     ec4:	fe0686e3          	beqz	a3,eb0 <_printf_i+0x2c8>
     ec8:	00c79023          	sh	a2,0(a5)
     ecc:	00042823          	sw	zero,16(s0)
     ed0:	000b8c93          	mv	s9,s7
     ed4:	f4dff06f          	j	e20 <_printf_i+0x238>
     ed8:	00072783          	lw	a5,0(a4)
     edc:	0045a603          	lw	a2,4(a1)
     ee0:	00000593          	li	a1,0
     ee4:	00478693          	add	a3,a5,4
     ee8:	00d72023          	sw	a3,0(a4)
     eec:	0007ac83          	lw	s9,0(a5)
     ef0:	000c8513          	mv	a0,s9
     ef4:	098000ef          	jal	f8c <memchr>
     ef8:	00050663          	beqz	a0,f04 <_printf_i+0x31c>
     efc:	41950533          	sub	a0,a0,s9
     f00:	00a42223          	sw	a0,4(s0)
     f04:	00442783          	lw	a5,4(s0)
     f08:	00f42823          	sw	a5,16(s0)
     f0c:	040401a3          	sb	zero,67(s0)
     f10:	f11ff06f          	j	e20 <_printf_i+0x238>
     f14:	01042683          	lw	a3,16(s0)
     f18:	000c8613          	mv	a2,s9
     f1c:	000a8593          	mv	a1,s5
     f20:	000a0513          	mv	a0,s4
     f24:	000b00e7          	jalr	s6
     f28:	f0950ce3          	beq	a0,s1,e40 <_printf_i+0x258>
     f2c:	00042783          	lw	a5,0(s0)
     f30:	0027f793          	and	a5,a5,2
     f34:	04079463          	bnez	a5,f7c <_printf_i+0x394>
     f38:	00c12783          	lw	a5,12(sp)
     f3c:	00c42503          	lw	a0,12(s0)
     f40:	f0f552e3          	bge	a0,a5,e44 <_printf_i+0x25c>
     f44:	00078513          	mv	a0,a5
     f48:	efdff06f          	j	e44 <_printf_i+0x25c>
     f4c:	00100693          	li	a3,1
     f50:	00090613          	mv	a2,s2
     f54:	000a8593          	mv	a1,s5
     f58:	000a0513          	mv	a0,s4
     f5c:	000b00e7          	jalr	s6
     f60:	ef3500e3          	beq	a0,s3,e40 <_printf_i+0x258>
     f64:	00148493          	add	s1,s1,1
     f68:	00c42783          	lw	a5,12(s0)
     f6c:	00c12703          	lw	a4,12(sp)
     f70:	40e787b3          	sub	a5,a5,a4
     f74:	fcf4cce3          	blt	s1,a5,f4c <_printf_i+0x364>
     f78:	fc1ff06f          	j	f38 <_printf_i+0x350>
     f7c:	00000493          	li	s1,0
     f80:	01940913          	add	s2,s0,25
     f84:	fff00993          	li	s3,-1
     f88:	fe1ff06f          	j	f68 <_printf_i+0x380>

00000f8c <memchr>:
     f8c:	0ff5f593          	zext.b	a1,a1
     f90:	00c50633          	add	a2,a0,a2
     f94:	00c51663          	bne	a0,a2,fa0 <memchr+0x14>
     f98:	00000513          	li	a0,0
     f9c:	00008067          	ret
     fa0:	00054783          	lbu	a5,0(a0)
     fa4:	feb78ce3          	beq	a5,a1,f9c <memchr+0x10>
     fa8:	00150513          	add	a0,a0,1
     fac:	fe9ff06f          	j	f94 <memchr+0x8>

00000fb0 <memmove>:
     fb0:	02060c63          	beqz	a2,fe8 <memmove+0x38>
     fb4:	00050313          	mv	t1,a0
     fb8:	00100693          	li	a3,1
     fbc:	00b56a63          	bltu	a0,a1,fd0 <memmove+0x20>
     fc0:	fff00693          	li	a3,-1
     fc4:	fff60713          	add	a4,a2,-1
     fc8:	00e30333          	add	t1,t1,a4
     fcc:	00e585b3          	add	a1,a1,a4
     fd0:	00058383          	lb	t2,0(a1)
     fd4:	00730023          	sb	t2,0(t1)
     fd8:	fff60613          	add	a2,a2,-1
     fdc:	00d30333          	add	t1,t1,a3
     fe0:	00d585b3          	add	a1,a1,a3
     fe4:	fe0616e3          	bnez	a2,fd0 <memmove+0x20>
     fe8:	00008067          	ret

00000fec <memcpy>:
     fec:	00050313          	mv	t1,a0
     ff0:	00060e63          	beqz	a2,100c <memcpy+0x20>
     ff4:	00058383          	lb	t2,0(a1)
     ff8:	00730023          	sb	t2,0(t1)
     ffc:	fff60613          	add	a2,a2,-1
    1000:	00130313          	add	t1,t1,1
    1004:	00158593          	add	a1,a1,1
    1008:	fe0616e3          	bnez	a2,ff4 <memcpy+0x8>
    100c:	00008067          	ret

00001010 <_free_r>:
    1010:	0e058a63          	beqz	a1,1104 <_free_r+0xf4>
    1014:	ffc5a783          	lw	a5,-4(a1)
    1018:	fe010113          	add	sp,sp,-32
    101c:	00812c23          	sw	s0,24(sp)
    1020:	00112e23          	sw	ra,28(sp)
    1024:	ffc58413          	add	s0,a1,-4
    1028:	0007d463          	bgez	a5,1030 <_free_r+0x20>
    102c:	00f40433          	add	s0,s0,a5
    1030:	00a12623          	sw	a0,12(sp)
    1034:	318000ef          	jal	134c <__malloc_lock>
    1038:	9141a783          	lw	a5,-1772(gp) # 20000114 <__malloc_free_list>
    103c:	00c12503          	lw	a0,12(sp)
    1040:	00079e63          	bnez	a5,105c <_free_r+0x4c>
    1044:	00042223          	sw	zero,4(s0)
    1048:	9081aa23          	sw	s0,-1772(gp) # 20000114 <__malloc_free_list>
    104c:	01812403          	lw	s0,24(sp)
    1050:	01c12083          	lw	ra,28(sp)
    1054:	02010113          	add	sp,sp,32
    1058:	2f80006f          	j	1350 <__malloc_unlock>
    105c:	02f47463          	bgeu	s0,a5,1084 <_free_r+0x74>
    1060:	00042603          	lw	a2,0(s0)
    1064:	00c406b3          	add	a3,s0,a2
    1068:	00d79a63          	bne	a5,a3,107c <_free_r+0x6c>
    106c:	0007a683          	lw	a3,0(a5)
    1070:	0047a783          	lw	a5,4(a5)
    1074:	00c686b3          	add	a3,a3,a2
    1078:	00d42023          	sw	a3,0(s0)
    107c:	00f42223          	sw	a5,4(s0)
    1080:	fc9ff06f          	j	1048 <_free_r+0x38>
    1084:	00078713          	mv	a4,a5
    1088:	0047a783          	lw	a5,4(a5)
    108c:	00078463          	beqz	a5,1094 <_free_r+0x84>
    1090:	fef47ae3          	bgeu	s0,a5,1084 <_free_r+0x74>
    1094:	00072683          	lw	a3,0(a4)
    1098:	00d70633          	add	a2,a4,a3
    109c:	02861863          	bne	a2,s0,10cc <_free_r+0xbc>
    10a0:	00042603          	lw	a2,0(s0)
    10a4:	00c686b3          	add	a3,a3,a2
    10a8:	00d72023          	sw	a3,0(a4)
    10ac:	00d70633          	add	a2,a4,a3
    10b0:	f8c79ee3          	bne	a5,a2,104c <_free_r+0x3c>
    10b4:	0007a603          	lw	a2,0(a5)
    10b8:	0047a783          	lw	a5,4(a5)
    10bc:	00d606b3          	add	a3,a2,a3
    10c0:	00d72023          	sw	a3,0(a4)
    10c4:	00f72223          	sw	a5,4(a4)
    10c8:	f85ff06f          	j	104c <_free_r+0x3c>
    10cc:	00c47863          	bgeu	s0,a2,10dc <_free_r+0xcc>
    10d0:	00c00793          	li	a5,12
    10d4:	00f52023          	sw	a5,0(a0)
    10d8:	f75ff06f          	j	104c <_free_r+0x3c>
    10dc:	00042603          	lw	a2,0(s0)
    10e0:	00c406b3          	add	a3,s0,a2
    10e4:	00d79a63          	bne	a5,a3,10f8 <_free_r+0xe8>
    10e8:	0007a683          	lw	a3,0(a5)
    10ec:	0047a783          	lw	a5,4(a5)
    10f0:	00c686b3          	add	a3,a3,a2
    10f4:	00d42023          	sw	a3,0(s0)
    10f8:	00f42223          	sw	a5,4(s0)
    10fc:	00872223          	sw	s0,4(a4)
    1100:	f4dff06f          	j	104c <_free_r+0x3c>
    1104:	00008067          	ret

00001108 <sbrk_aligned>:
    1108:	ff010113          	add	sp,sp,-16
    110c:	01212023          	sw	s2,0(sp)
    1110:	9101a783          	lw	a5,-1776(gp) # 20000110 <__malloc_sbrk_start>
    1114:	00812423          	sw	s0,8(sp)
    1118:	00912223          	sw	s1,4(sp)
    111c:	00112623          	sw	ra,12(sp)
    1120:	00050493          	mv	s1,a0
    1124:	00058413          	mv	s0,a1
    1128:	00079863          	bnez	a5,1138 <sbrk_aligned+0x30>
    112c:	00000593          	li	a1,0
    1130:	2fc000ef          	jal	142c <_sbrk_r>
    1134:	90a1a823          	sw	a0,-1776(gp) # 20000110 <__malloc_sbrk_start>
    1138:	00040593          	mv	a1,s0
    113c:	00048513          	mv	a0,s1
    1140:	2ec000ef          	jal	142c <_sbrk_r>
    1144:	fff00913          	li	s2,-1
    1148:	03251263          	bne	a0,s2,116c <sbrk_aligned+0x64>
    114c:	fff00413          	li	s0,-1
    1150:	00c12083          	lw	ra,12(sp)
    1154:	00040513          	mv	a0,s0
    1158:	00812403          	lw	s0,8(sp)
    115c:	00412483          	lw	s1,4(sp)
    1160:	00012903          	lw	s2,0(sp)
    1164:	01010113          	add	sp,sp,16
    1168:	00008067          	ret
    116c:	00350413          	add	s0,a0,3
    1170:	ffc47413          	and	s0,s0,-4
    1174:	fc850ee3          	beq	a0,s0,1150 <sbrk_aligned+0x48>
    1178:	40a405b3          	sub	a1,s0,a0
    117c:	00048513          	mv	a0,s1
    1180:	2ac000ef          	jal	142c <_sbrk_r>
    1184:	fd2516e3          	bne	a0,s2,1150 <sbrk_aligned+0x48>
    1188:	fc5ff06f          	j	114c <sbrk_aligned+0x44>

0000118c <_malloc_r>:
    118c:	fe010113          	add	sp,sp,-32
    1190:	00912a23          	sw	s1,20(sp)
    1194:	00358493          	add	s1,a1,3
    1198:	ffc4f493          	and	s1,s1,-4
    119c:	01212823          	sw	s2,16(sp)
    11a0:	00112e23          	sw	ra,28(sp)
    11a4:	00812c23          	sw	s0,24(sp)
    11a8:	01312623          	sw	s3,12(sp)
    11ac:	01412423          	sw	s4,8(sp)
    11b0:	00848493          	add	s1,s1,8
    11b4:	00c00793          	li	a5,12
    11b8:	00050913          	mv	s2,a0
    11bc:	0af4f063          	bgeu	s1,a5,125c <_malloc_r+0xd0>
    11c0:	00c00493          	li	s1,12
    11c4:	08b4ee63          	bltu	s1,a1,1260 <_malloc_r+0xd4>
    11c8:	00090513          	mv	a0,s2
    11cc:	180000ef          	jal	134c <__malloc_lock>
    11d0:	9141a783          	lw	a5,-1772(gp) # 20000114 <__malloc_free_list>
    11d4:	00078413          	mv	s0,a5
    11d8:	0a041a63          	bnez	s0,128c <_malloc_r+0x100>
    11dc:	00048593          	mv	a1,s1
    11e0:	00090513          	mv	a0,s2
    11e4:	f25ff0ef          	jal	1108 <sbrk_aligned>
    11e8:	fff00793          	li	a5,-1
    11ec:	00050413          	mv	s0,a0
    11f0:	14f51663          	bne	a0,a5,133c <_malloc_r+0x1b0>
    11f4:	9141a403          	lw	s0,-1772(gp) # 20000114 <__malloc_free_list>
    11f8:	00040793          	mv	a5,s0
    11fc:	10079c63          	bnez	a5,1314 <_malloc_r+0x188>
    1200:	12040463          	beqz	s0,1328 <_malloc_r+0x19c>
    1204:	00042a03          	lw	s4,0(s0)
    1208:	00000593          	li	a1,0
    120c:	00090513          	mv	a0,s2
    1210:	01440a33          	add	s4,s0,s4
    1214:	218000ef          	jal	142c <_sbrk_r>
    1218:	10aa1863          	bne	s4,a0,1328 <_malloc_r+0x19c>
    121c:	00042783          	lw	a5,0(s0)
    1220:	00090513          	mv	a0,s2
    1224:	40f484b3          	sub	s1,s1,a5
    1228:	00048593          	mv	a1,s1
    122c:	eddff0ef          	jal	1108 <sbrk_aligned>
    1230:	fff00793          	li	a5,-1
    1234:	0ef50a63          	beq	a0,a5,1328 <_malloc_r+0x19c>
    1238:	00042783          	lw	a5,0(s0)
    123c:	009787b3          	add	a5,a5,s1
    1240:	00f42023          	sw	a5,0(s0)
    1244:	9141a783          	lw	a5,-1772(gp) # 20000114 <__malloc_free_list>
    1248:	0e078e63          	beqz	a5,1344 <_malloc_r+0x1b8>
    124c:	0047a703          	lw	a4,4(a5)
    1250:	0c871863          	bne	a4,s0,1320 <_malloc_r+0x194>
    1254:	0007a223          	sw	zero,4(a5)
    1258:	0640006f          	j	12bc <_malloc_r+0x130>
    125c:	f604d4e3          	bgez	s1,11c4 <_malloc_r+0x38>
    1260:	00c00793          	li	a5,12
    1264:	00f92023          	sw	a5,0(s2)
    1268:	00000513          	li	a0,0
    126c:	01c12083          	lw	ra,28(sp)
    1270:	01812403          	lw	s0,24(sp)
    1274:	01412483          	lw	s1,20(sp)
    1278:	01012903          	lw	s2,16(sp)
    127c:	00c12983          	lw	s3,12(sp)
    1280:	00812a03          	lw	s4,8(sp)
    1284:	02010113          	add	sp,sp,32
    1288:	00008067          	ret
    128c:	00042683          	lw	a3,0(s0)
    1290:	409686b3          	sub	a3,a3,s1
    1294:	0606ca63          	bltz	a3,1308 <_malloc_r+0x17c>
    1298:	00b00713          	li	a4,11
    129c:	04d77a63          	bgeu	a4,a3,12f0 <_malloc_r+0x164>
    12a0:	00942023          	sw	s1,0(s0)
    12a4:	00940733          	add	a4,s0,s1
    12a8:	04879063          	bne	a5,s0,12e8 <_malloc_r+0x15c>
    12ac:	90e1aa23          	sw	a4,-1772(gp) # 20000114 <__malloc_free_list>
    12b0:	00442783          	lw	a5,4(s0)
    12b4:	00d72023          	sw	a3,0(a4)
    12b8:	00f72223          	sw	a5,4(a4)
    12bc:	00090513          	mv	a0,s2
    12c0:	090000ef          	jal	1350 <__malloc_unlock>
    12c4:	00b40513          	add	a0,s0,11
    12c8:	00440793          	add	a5,s0,4
    12cc:	ff857513          	and	a0,a0,-8
    12d0:	40f50733          	sub	a4,a0,a5
    12d4:	f8f50ce3          	beq	a0,a5,126c <_malloc_r+0xe0>
    12d8:	00e40433          	add	s0,s0,a4
    12dc:	40a787b3          	sub	a5,a5,a0
    12e0:	00f42023          	sw	a5,0(s0)
    12e4:	f89ff06f          	j	126c <_malloc_r+0xe0>
    12e8:	00e7a223          	sw	a4,4(a5)
    12ec:	fc5ff06f          	j	12b0 <_malloc_r+0x124>
    12f0:	00442703          	lw	a4,4(s0)
    12f4:	00879663          	bne	a5,s0,1300 <_malloc_r+0x174>
    12f8:	90e1aa23          	sw	a4,-1772(gp) # 20000114 <__malloc_free_list>
    12fc:	fc1ff06f          	j	12bc <_malloc_r+0x130>
    1300:	00e7a223          	sw	a4,4(a5)
    1304:	fb9ff06f          	j	12bc <_malloc_r+0x130>
    1308:	00040793          	mv	a5,s0
    130c:	00442403          	lw	s0,4(s0)
    1310:	ec9ff06f          	j	11d8 <_malloc_r+0x4c>
    1314:	00078413          	mv	s0,a5
    1318:	0047a783          	lw	a5,4(a5)
    131c:	ee1ff06f          	j	11fc <_malloc_r+0x70>
    1320:	00070793          	mv	a5,a4
    1324:	f25ff06f          	j	1248 <_malloc_r+0xbc>
    1328:	00c00793          	li	a5,12
    132c:	00f92023          	sw	a5,0(s2)
    1330:	00090513          	mv	a0,s2
    1334:	01c000ef          	jal	1350 <__malloc_unlock>
    1338:	f31ff06f          	j	1268 <_malloc_r+0xdc>
    133c:	00952023          	sw	s1,0(a0)
    1340:	f7dff06f          	j	12bc <_malloc_r+0x130>
    1344:	00002223          	sw	zero,4(zero) # 4 <_start+0x4>
    1348:	00100073          	ebreak

0000134c <__malloc_lock>:
    134c:	00008067          	ret

00001350 <__malloc_unlock>:
    1350:	00008067          	ret

00001354 <_realloc_r>:
    1354:	fe010113          	add	sp,sp,-32
    1358:	00812c23          	sw	s0,24(sp)
    135c:	00112e23          	sw	ra,28(sp)
    1360:	00912a23          	sw	s1,20(sp)
    1364:	01212823          	sw	s2,16(sp)
    1368:	01312623          	sw	s3,12(sp)
    136c:	01412423          	sw	s4,8(sp)
    1370:	00060413          	mv	s0,a2
    1374:	02059463          	bnez	a1,139c <_realloc_r+0x48>
    1378:	01812403          	lw	s0,24(sp)
    137c:	01c12083          	lw	ra,28(sp)
    1380:	01412483          	lw	s1,20(sp)
    1384:	01012903          	lw	s2,16(sp)
    1388:	00c12983          	lw	s3,12(sp)
    138c:	00812a03          	lw	s4,8(sp)
    1390:	00060593          	mv	a1,a2
    1394:	02010113          	add	sp,sp,32
    1398:	df5ff06f          	j	118c <_malloc_r>
    139c:	02061863          	bnez	a2,13cc <_realloc_r+0x78>
    13a0:	c71ff0ef          	jal	1010 <_free_r>
    13a4:	00000493          	li	s1,0
    13a8:	01c12083          	lw	ra,28(sp)
    13ac:	01812403          	lw	s0,24(sp)
    13b0:	01012903          	lw	s2,16(sp)
    13b4:	00c12983          	lw	s3,12(sp)
    13b8:	00812a03          	lw	s4,8(sp)
    13bc:	00048513          	mv	a0,s1
    13c0:	01412483          	lw	s1,20(sp)
    13c4:	02010113          	add	sp,sp,32
    13c8:	00008067          	ret
    13cc:	00050a13          	mv	s4,a0
    13d0:	00058493          	mv	s1,a1
    13d4:	0a0000ef          	jal	1474 <_malloc_usable_size_r>
    13d8:	00050913          	mv	s2,a0
    13dc:	00856663          	bltu	a0,s0,13e8 <_realloc_r+0x94>
    13e0:	00155793          	srl	a5,a0,0x1
    13e4:	fc87e2e3          	bltu	a5,s0,13a8 <_realloc_r+0x54>
    13e8:	00040593          	mv	a1,s0
    13ec:	000a0513          	mv	a0,s4
    13f0:	d9dff0ef          	jal	118c <_malloc_r>
    13f4:	00050993          	mv	s3,a0
    13f8:	00051663          	bnez	a0,1404 <_realloc_r+0xb0>
    13fc:	00098493          	mv	s1,s3
    1400:	fa9ff06f          	j	13a8 <_realloc_r+0x54>
    1404:	00040613          	mv	a2,s0
    1408:	00897463          	bgeu	s2,s0,1410 <_realloc_r+0xbc>
    140c:	00090613          	mv	a2,s2
    1410:	00048593          	mv	a1,s1
    1414:	00098513          	mv	a0,s3
    1418:	bd5ff0ef          	jal	fec <memcpy>
    141c:	00048593          	mv	a1,s1
    1420:	000a0513          	mv	a0,s4
    1424:	bedff0ef          	jal	1010 <_free_r>
    1428:	fd5ff06f          	j	13fc <_realloc_r+0xa8>

0000142c <_sbrk_r>:
    142c:	ff010113          	add	sp,sp,-16
    1430:	00812423          	sw	s0,8(sp)
    1434:	00912223          	sw	s1,4(sp)
    1438:	00050413          	mv	s0,a0
    143c:	00058513          	mv	a0,a1
    1440:	00112623          	sw	ra,12(sp)
    1444:	9001ac23          	sw	zero,-1768(gp) # 20000118 <errno>
    1448:	d61fe0ef          	jal	1a8 <_sbrk>
    144c:	fff00793          	li	a5,-1
    1450:	00f51863          	bne	a0,a5,1460 <_sbrk_r+0x34>
    1454:	9181a783          	lw	a5,-1768(gp) # 20000118 <errno>
    1458:	00078463          	beqz	a5,1460 <_sbrk_r+0x34>
    145c:	00f42023          	sw	a5,0(s0)
    1460:	00c12083          	lw	ra,12(sp)
    1464:	00812403          	lw	s0,8(sp)
    1468:	00412483          	lw	s1,4(sp)
    146c:	01010113          	add	sp,sp,16
    1470:	00008067          	ret

00001474 <_malloc_usable_size_r>:
    1474:	ffc5a783          	lw	a5,-4(a1)
    1478:	ffc78513          	add	a0,a5,-4
    147c:	0007d863          	bgez	a5,148c <_malloc_usable_size_r+0x18>
    1480:	00a585b3          	add	a1,a1,a0
    1484:	0005a783          	lw	a5,0(a1)
    1488:	00f50533          	add	a0,a0,a5
    148c:	00008067          	ret

00001490 <_reclaim_reent>:
    1490:	8b81a783          	lw	a5,-1864(gp) # 200000b8 <_impure_ptr>
    1494:	14a78863          	beq	a5,a0,15e4 <_reclaim_reent+0x154>
    1498:	01c52783          	lw	a5,28(a0)
    149c:	fe010113          	add	sp,sp,-32
    14a0:	00812c23          	sw	s0,24(sp)
    14a4:	00112e23          	sw	ra,28(sp)
    14a8:	00912a23          	sw	s1,20(sp)
    14ac:	01212823          	sw	s2,16(sp)
    14b0:	01312623          	sw	s3,12(sp)
    14b4:	00050413          	mv	s0,a0
    14b8:	04078a63          	beqz	a5,150c <_reclaim_reent+0x7c>
    14bc:	00c7a783          	lw	a5,12(a5)
    14c0:	02078c63          	beqz	a5,14f8 <_reclaim_reent+0x68>
    14c4:	00000493          	li	s1,0
    14c8:	08000913          	li	s2,128
    14cc:	01c42783          	lw	a5,28(s0)
    14d0:	00c7a783          	lw	a5,12(a5)
    14d4:	009787b3          	add	a5,a5,s1
    14d8:	0007a583          	lw	a1,0(a5)
    14dc:	0c059c63          	bnez	a1,15b4 <_reclaim_reent+0x124>
    14e0:	00448493          	add	s1,s1,4
    14e4:	ff2494e3          	bne	s1,s2,14cc <_reclaim_reent+0x3c>
    14e8:	01c42783          	lw	a5,28(s0)
    14ec:	00040513          	mv	a0,s0
    14f0:	00c7a583          	lw	a1,12(a5)
    14f4:	b1dff0ef          	jal	1010 <_free_r>
    14f8:	01c42783          	lw	a5,28(s0)
    14fc:	0007a583          	lw	a1,0(a5)
    1500:	00058663          	beqz	a1,150c <_reclaim_reent+0x7c>
    1504:	00040513          	mv	a0,s0
    1508:	b09ff0ef          	jal	1010 <_free_r>
    150c:	01442583          	lw	a1,20(s0)
    1510:	00058663          	beqz	a1,151c <_reclaim_reent+0x8c>
    1514:	00040513          	mv	a0,s0
    1518:	af9ff0ef          	jal	1010 <_free_r>
    151c:	01c42583          	lw	a1,28(s0)
    1520:	00058663          	beqz	a1,152c <_reclaim_reent+0x9c>
    1524:	00040513          	mv	a0,s0
    1528:	ae9ff0ef          	jal	1010 <_free_r>
    152c:	03042583          	lw	a1,48(s0)
    1530:	00058663          	beqz	a1,153c <_reclaim_reent+0xac>
    1534:	00040513          	mv	a0,s0
    1538:	ad9ff0ef          	jal	1010 <_free_r>
    153c:	03442583          	lw	a1,52(s0)
    1540:	00058663          	beqz	a1,154c <_reclaim_reent+0xbc>
    1544:	00040513          	mv	a0,s0
    1548:	ac9ff0ef          	jal	1010 <_free_r>
    154c:	03842583          	lw	a1,56(s0)
    1550:	00058663          	beqz	a1,155c <_reclaim_reent+0xcc>
    1554:	00040513          	mv	a0,s0
    1558:	ab9ff0ef          	jal	1010 <_free_r>
    155c:	04842583          	lw	a1,72(s0)
    1560:	00058663          	beqz	a1,156c <_reclaim_reent+0xdc>
    1564:	00040513          	mv	a0,s0
    1568:	aa9ff0ef          	jal	1010 <_free_r>
    156c:	04442583          	lw	a1,68(s0)
    1570:	00058663          	beqz	a1,157c <_reclaim_reent+0xec>
    1574:	00040513          	mv	a0,s0
    1578:	a99ff0ef          	jal	1010 <_free_r>
    157c:	02c42583          	lw	a1,44(s0)
    1580:	00058663          	beqz	a1,158c <_reclaim_reent+0xfc>
    1584:	00040513          	mv	a0,s0
    1588:	a89ff0ef          	jal	1010 <_free_r>
    158c:	02042783          	lw	a5,32(s0)
    1590:	02078c63          	beqz	a5,15c8 <_reclaim_reent+0x138>
    1594:	00040513          	mv	a0,s0
    1598:	01812403          	lw	s0,24(sp)
    159c:	01c12083          	lw	ra,28(sp)
    15a0:	01412483          	lw	s1,20(sp)
    15a4:	01012903          	lw	s2,16(sp)
    15a8:	00c12983          	lw	s3,12(sp)
    15ac:	02010113          	add	sp,sp,32
    15b0:	00078067          	jr	a5
    15b4:	0005a983          	lw	s3,0(a1)
    15b8:	00040513          	mv	a0,s0
    15bc:	a55ff0ef          	jal	1010 <_free_r>
    15c0:	00098593          	mv	a1,s3
    15c4:	f19ff06f          	j	14dc <_reclaim_reent+0x4c>
    15c8:	01c12083          	lw	ra,28(sp)
    15cc:	01812403          	lw	s0,24(sp)
    15d0:	01412483          	lw	s1,20(sp)
    15d4:	01012903          	lw	s2,16(sp)
    15d8:	00c12983          	lw	s3,12(sp)
    15dc:	02010113          	add	sp,sp,32
    15e0:	00008067          	ret
    15e4:	00008067          	ret

000015e8 <__divsi3>:
    15e8:	06054063          	bltz	a0,1648 <__umodsi3+0x10>
    15ec:	0605c663          	bltz	a1,1658 <__umodsi3+0x20>

000015f0 <__hidden___udivsi3>:
    15f0:	00058613          	mv	a2,a1
    15f4:	00050593          	mv	a1,a0
    15f8:	fff00513          	li	a0,-1
    15fc:	02060c63          	beqz	a2,1634 <__hidden___udivsi3+0x44>
    1600:	00100693          	li	a3,1
    1604:	00b67a63          	bgeu	a2,a1,1618 <__hidden___udivsi3+0x28>
    1608:	00c05863          	blez	a2,1618 <__hidden___udivsi3+0x28>
    160c:	00161613          	sll	a2,a2,0x1
    1610:	00169693          	sll	a3,a3,0x1
    1614:	feb66ae3          	bltu	a2,a1,1608 <__hidden___udivsi3+0x18>
    1618:	00000513          	li	a0,0
    161c:	00c5e663          	bltu	a1,a2,1628 <__hidden___udivsi3+0x38>
    1620:	40c585b3          	sub	a1,a1,a2
    1624:	00d56533          	or	a0,a0,a3
    1628:	0016d693          	srl	a3,a3,0x1
    162c:	00165613          	srl	a2,a2,0x1
    1630:	fe0696e3          	bnez	a3,161c <__hidden___udivsi3+0x2c>
    1634:	00008067          	ret

00001638 <__umodsi3>:
    1638:	00008293          	mv	t0,ra
    163c:	fb5ff0ef          	jal	15f0 <__hidden___udivsi3>
    1640:	00058513          	mv	a0,a1
    1644:	00028067          	jr	t0
    1648:	40a00533          	neg	a0,a0
    164c:	00b04863          	bgtz	a1,165c <__umodsi3+0x24>
    1650:	40b005b3          	neg	a1,a1
    1654:	f9dff06f          	j	15f0 <__hidden___udivsi3>
    1658:	40b005b3          	neg	a1,a1
    165c:	00008293          	mv	t0,ra
    1660:	f91ff0ef          	jal	15f0 <__hidden___udivsi3>
    1664:	40a00533          	neg	a0,a0
    1668:	00028067          	jr	t0

0000166c <__modsi3>:
    166c:	00008293          	mv	t0,ra
    1670:	0005ca63          	bltz	a1,1684 <__modsi3+0x18>
    1674:	00054c63          	bltz	a0,168c <__modsi3+0x20>
    1678:	f79ff0ef          	jal	15f0 <__hidden___udivsi3>
    167c:	00058513          	mv	a0,a1
    1680:	00028067          	jr	t0
    1684:	40b005b3          	neg	a1,a1
    1688:	fe0558e3          	bgez	a0,1678 <__modsi3+0xc>
    168c:	40a00533          	neg	a0,a0
    1690:	f61ff0ef          	jal	15f0 <__hidden___udivsi3>
    1694:	40b00533          	neg	a0,a1
    1698:	00028067          	jr	t0
    169c:	0000                	.insn	2, 0x
	...
